target datalayout = "e-m:e-p270:32:32-p271:32:32-p272:64:64-i64:64-i128:128-f80:128-n8:16:32:64-S128"
target triple = "x86_64-pc-linux-gnu"

%struct._diam_sub_dis_t = type { i32, i32, i32, i32, i32, ptr, ptr, i32, i32, i32 }

; Function Attrs: nounwind uwtable
define internal i32 @dissect_diameter_3gpp_feature_list_id(ptr noundef %0, ptr noundef %1, ptr noundef %2, ptr noundef %3) #0 {
  %5 = alloca ptr, align 8
  %6 = alloca ptr, align 8
  %7 = alloca ptr, align 8
  %8 = alloca ptr, align 8
  %9 = alloca ptr, align 8
  store ptr %0, ptr %5, align 8
  store ptr %1, ptr %6, align 8
  store ptr %2, ptr %7, align 8
  store ptr %3, ptr %8, align 8
  %10 = load ptr, ptr %8, align 8
  store ptr %10, ptr %9, align 8
  %11 = load ptr, ptr %9, align 8
  %12 = icmp ne ptr %11, null
  br i1 %12, label %13, label %18

13:                                               ; preds = %4
  %14 = load ptr, ptr %5, align 8
  %15 = call i32 @tvb_get_ntohl(ptr noundef %14, i32 noundef 0)
  %16 = load ptr, ptr %9, align 8
  %17 = getelementptr inbounds %struct._diam_sub_dis_t, ptr %16, i32 0, i32 2
  store i32 %15, ptr %17, align 8
  br label %18

18:                                               ; preds = %13, %4
  ret i32 4
}