; Function Attrs: nounwind uwtable
define internal noundef i32 @dissect_diameter_3gpp_feature_list_id(ptr noundef %0, ptr readnone captures(none) %1, ptr readnone captures(none) %2, ptr noundef writeonly %3) #0 {
  %.not = icmp eq ptr %3, null
  br i1 %.not, label %8, label %5

5:                                                ; preds = %4
  %6 = tail call i32 @tvb_get_ntohl(ptr noundef %0, i32 noundef 0) #3
  %7 = getelementptr inbounds nuw i8, ptr %3, i64 8
  store i32 %6, ptr %7, align 8
  br label %8

8:                                                ; preds = %5, %4
  ret i32 4
}